target datalayout = "e-m:e-p270:32:32-p271:32:32-p272:64:64-i64:64-i128:128-f80:128-n8:16:32:64-S128"
target triple = "x86_64-pc-linux-gnu"

%struct.darktable_t = type { %struct.dt_codepath_t, i32, i32, ptr, ptr, ptr, ptr, ptr, ptr, ptr, ptr, ptr, ptr, ptr, ptr, ptr, ptr, ptr, ptr, ptr, ptr, ptr, ptr, ptr, ptr, ptr, ptr, ptr, ptr, ptr, [64 x %struct.dt_pthread_mutex_t], %struct.dt_pthread_mutex_t, %struct.dt_pthread_mutex_t, %struct.dt_pthread_mutex_t, %struct.dt_pthread_mutex_t, %struct.dt_pthread_mutex_t, ptr, ptr, ptr, ptr, ptr, ptr, ptr, ptr, ptr, ptr, ptr, ptr, ptr, %struct.dt_lua_state_t, ptr, double, ptr, i32, [47 x i32], i32, i32, ptr, ptr, %struct.dt_sys_resources_t, %struct.dt_backthumb_t, %struct.dt_gimp_t }
%struct.dt_codepath_t = type { i8, [3 x i8] }
%struct.dt_pthread_mutex_t = type { %union.pthread_mutex_t }
%union.pthread_mutex_t = type { %struct.__pthread_mutex_s }
%struct.__pthread_mutex_s = type { i32, i32, i32, i32, i32, i16, i16, %struct.__pthread_internal_list }
%struct.__pthread_internal_list = type { ptr, ptr }
%struct.dt_lua_state_t = type { i32 }
%struct.dt_sys_resources_t = type { i64, i64, ptr, ptr, i32 }
%struct.dt_backthumb_t = type { double, double, i32, i32, i32, i32 }
%struct.dt_gimp_t = type { i32, ptr, ptr, i32, i32 }
%struct.dt_iop_module_t = type { i32, ptr, ptr, ptr, ptr, ptr, ptr, ptr, ptr, ptr, ptr, ptr, ptr, ptr, ptr, ptr, ptr, ptr, ptr, ptr, ptr, ptr, ptr, ptr, ptr, ptr, ptr, ptr, ptr, ptr, ptr, ptr, ptr, ptr, ptr, ptr, ptr, ptr, ptr, ptr, ptr, ptr, ptr, ptr, ptr, ptr, ptr, ptr, ptr, ptr, ptr, ptr, ptr, ptr, ptr, ptr, ptr, [20 x i8], i32, i32, i32, i32, i32, i32, i32, [8 x i8], [4 x float], [4 x float], [4 x float], [4 x float], [4 x float], [4 x float], ptr, %struct.dt_dev_histogram_stats_t, [4 x i32], i32, i32, ptr, i32, i32, ptr, ptr, i32, ptr, %struct.dt_pthread_mutex_t, ptr, ptr, ptr, ptr, %struct.anon, ptr, ptr, ptr, ptr, ptr, ptr, ptr, i32, ptr, ptr, ptr, ptr, ptr, ptr, ptr, i32, ptr, i32, [128 x i8], i32, ptr, ptr, i32, [12 x i8] }
%struct.dt_dev_histogram_stats_t = type { i32, i64, i32, i32 }
%struct.anon = type { %struct.anon.0, %struct.anon.1 }
%struct.anon.0 = type { ptr, ptr }
%struct.anon.1 = type { ptr, i32 }
%struct.dt_develop_t = type { i32, i32, i32, ptr, double, double, i32, i32, i32, i32, i32, double, i32, i32, i32, ptr, ptr, [8 x i8], %struct.dt_image_t, i32, i32, %struct.dt_pthread_mutex_t, i32, ptr, i32, ptr, i32, ptr, ptr, i32, ptr, ptr, ptr, ptr, i32, i32, ptr, ptr, ptr, ptr, i32, i32, i32, float, float, ptr, i32, %struct.anon.8, %struct.dt_dev_chroma_t, %struct.anon.11, %struct.anon.12, %struct.anon.13, %struct.anon.14, %struct.anon.15, %struct.anon.16, ptr, ptr, %struct.dt_dev_viewport_t, %struct.dt_dev_viewport_t, i32, i32, i32, ptr, [8 x i8] }
%struct.dt_image_t = type { i32, i32, float, float, float, float, float, float, float, [64 x i8], [64 x i8], [128 x i8], [64 x i8], [64 x i8], [64 x i8], [64 x i8], i64, i32, %union.dt_image_correction_data_t, [64 x i8], [64 x i8], [64 x i8], [128 x i8], i32, [256 x i8], i32, i32, i32, i32, i32, i32, i32, i32, i32, i32, float, i32, i32, i32, i32, i32, i32, i64, i64, i64, i64, i32, [12 x i8], %struct.dt_iop_buffer_dsc_t, [9 x float], ptr, i32, i32, %struct.dt_image_raw_parameters_t, %struct.dt_image_geoloc_t, %struct._color_harmony_t, i16, [4 x i16], i32, i32, float, float, [4 x float], [4 x [3 x float]], [4 x float], ptr, ptr, i32, i32, [8 x i8] }
%union.dt_image_correction_data_t = type { %struct.anon.3 }
%struct.anon.3 = type { i32, float, [11 x float], [11 x float], [11 x float], [11 x float], [11 x float] }
%struct.dt_iop_buffer_dsc_t = type { i32, i32, i32, [6 x [6 x i8]], %struct.anon.6, [12 x i8], %struct.anon.7, [4 x float], i32, [12 x i8] }
%struct.anon.6 = type { i16, i16 }
%struct.anon.7 = type { i32, [12 x i8], [4 x float] }
%struct.dt_image_raw_parameters_t = type { i32 }
%struct.dt_image_geoloc_t = type { double, double, double }
%struct._color_harmony_t = type { i32, i32, i32 }
%struct.anon.8 = type { %struct.dt_dev_proxy_exposure_t, ptr, %struct.anon.9, %struct.anon.10 }
%struct.dt_dev_proxy_exposure_t = type { ptr, ptr, ptr, ptr }
%struct.anon.9 = type { ptr, ptr, ptr, ptr, ptr, ptr, ptr, ptr, ptr }
%struct.anon.10 = type { ptr, ptr, ptr, ptr, ptr }
%struct.dt_dev_chroma_t = type { ptr, ptr, [4 x double], [4 x double], [4 x double], i32 }
%struct.anon.11 = type { ptr, ptr, ptr }
%struct.anon.12 = type { ptr, ptr, i32, i32, float, float, i32 }
%struct.anon.13 = type { ptr, ptr, i32, i32, i32, float }
%struct.anon.14 = type { ptr }
%struct.anon.15 = type { ptr, i32 }
%struct.anon.16 = type { ptr, ptr, ptr }
%struct.dt_dev_viewport_t = type { ptr, i32, i32, i32, i32, i32, double, double, double, i32, i32, i32, float, float, float, ptr }
%struct._GHashTableIter = type { ptr, ptr, ptr, i32, i32, ptr }
%struct.raster_combo_entry_t = type { ptr, i32 }
%struct._GList = type { ptr, ptr, ptr }

@darktable = external global %struct.darktable_t, align 8
@.str.137 = private unnamed_addr constant [13 x i8] c"no mask used\00", align 1

; Function Attrs: nounwind uwtable
define internal void @_raster_combo_populate(ptr noundef %0, ptr noundef %1) #0 {
  %3 = alloca ptr, align 8
  %4 = alloca ptr, align 8
  %5 = alloca ptr, align 8
  %6 = alloca ptr, align 8
  %7 = alloca i32, align 4
  %8 = alloca ptr, align 8
  %9 = alloca i32, align 4
  %10 = alloca ptr, align 8
  %11 = alloca %struct._GHashTableIter, align 8
  %12 = alloca ptr, align 8
  %13 = alloca ptr, align 8
  %14 = alloca i32, align 4
  %15 = alloca ptr, align 8
  store ptr %0, ptr %3, align 8, !tbaa !11
  store ptr %1, ptr %4, align 8, !tbaa !222
  call void @llvm.lifetime.start.p0(i64 8, ptr %5) #11
  %16 = load ptr, ptr %4, align 8, !tbaa !222
  %17 = load ptr, ptr %16, align 8, !tbaa !6
  store ptr %17, ptr %5, align 8, !tbaa !6
  %18 = load ptr, ptr %5, align 8, !tbaa !6
  call void @dt_iop_request_focus(ptr noundef %18)
  %19 = load ptr, ptr %3, align 8, !tbaa !11
  call void @dt_bauhaus_combobox_clear(ptr noundef %19)
  call void @llvm.lifetime.start.p0(i64 8, ptr %6) #11
  %20 = call noalias ptr @malloc(i64 noundef 16) #13
  store ptr %20, ptr %6, align 8, !tbaa !224
  %21 = load ptr, ptr %6, align 8, !tbaa !224
  %22 = getelementptr inbounds nuw %struct.raster_combo_entry_t, ptr %21, i32 0, i32 0
  store ptr null, ptr %22, align 8, !tbaa !226
  %23 = load ptr, ptr %6, align 8, !tbaa !224
  %24 = getelementptr inbounds nuw %struct.raster_combo_entry_t, ptr %23, i32 0, i32 1
  store i32 0, ptr %24, align 8, !tbaa !228
  %25 = load ptr, ptr %3, align 8, !tbaa !11
  %26 = call ptr @dcgettext(ptr noundef null, ptr noundef @.str.137, i32 noundef 5) #11
  %27 = load ptr, ptr %6, align 8, !tbaa !224
  call void @dt_bauhaus_combobox_add_full(ptr noundef %25, ptr noundef %26, i32 noundef 1, ptr noundef %27, ptr noundef @free, i32 noundef 1)
  call void @llvm.lifetime.start.p0(i64 4, ptr %7) #11
  store i32 1, ptr %7, align 4, !tbaa !80
  call void @llvm.lifetime.start.p0(i64 8, ptr %8) #11
  %28 = load ptr, ptr getelementptr inbounds nuw (%struct.darktable_t, ptr @darktable, i32 0, i32 9), align 8, !tbaa !132
  %29 = getelementptr inbounds nuw %struct.dt_develop_t, ptr %28, i32 0, i32 27
  %30 = load ptr, ptr %29, align 8, !tbaa !93
  store ptr %30, ptr %8, align 8, !tbaa !229
  br label %31

31:                                               ; preds = %100, %2
  %32 = load ptr, ptr %8, align 8, !tbaa !229
  %33 = icmp ne ptr %32, null
  br i1 %33, label %35, label %34

34:                                               ; preds = %31
  store i32 2, ptr %9, align 4
  br label %102

35:                                               ; preds = %31
  call void @llvm.lifetime.start.p0(i64 8, ptr %10) #11
  %36 = load ptr, ptr %8, align 8, !tbaa !229
  %37 = getelementptr inbounds nuw %struct._GList, ptr %36, i32 0, i32 0
  %38 = load ptr, ptr %37, align 8, !tbaa !230
  store ptr %38, ptr %10, align 8, !tbaa !6
  %39 = load ptr, ptr %10, align 8, !tbaa !6
  %40 = load ptr, ptr %5, align 8, !tbaa !6
  %41 = icmp eq ptr %39, %40
  br i1 %41, label %42, label %43

42:                                               ; preds = %35
  store i32 2, ptr %9, align 4
  br label %89

43:                                               ; preds = %35
  call void @llvm.lifetime.start.p0(i64 40, ptr %11) #11
  call void @llvm.lifetime.start.p0(i64 8, ptr %12) #11
  call void @llvm.lifetime.start.p0(i64 8, ptr %13) #11
  %44 = load ptr, ptr %10, align 8, !tbaa !6
  %45 = getelementptr inbounds nuw %struct.dt_iop_module_t, ptr %44, i32 0, i32 89
  %46 = getelementptr inbounds nuw %struct.anon, ptr %45, i32 0, i32 0
  %47 = getelementptr inbounds nuw %struct.anon.0, ptr %46, i32 0, i32 1
  %48 = load ptr, ptr %47, align 8, !tbaa !232
  call void @g_hash_table_iter_init(ptr noundef %11, ptr noundef %48)
  br label %49

49:                                               ; preds = %85, %43
  %50 = call i32 @g_hash_table_iter_next(ptr noundef %11, ptr noundef %12, ptr noundef %13)
  %51 = icmp ne i32 %50, 0
  br i1 %51, label %52, label %88

52:                                               ; preds = %49
  call void @llvm.lifetime.start.p0(i64 4, ptr %14) #11
  %53 = load ptr, ptr %12, align 8, !tbaa !168
  %54 = ptrtoint ptr %53 to i64
  %55 = trunc i64 %54 to i32
  store i32 %55, ptr %14, align 4, !tbaa !80
  call void @llvm.lifetime.start.p0(i64 8, ptr %15) #11
  %56 = load ptr, ptr %13, align 8, !tbaa !168
  store ptr %56, ptr %15, align 8, !tbaa !141
  %57 = call noalias ptr @malloc(i64 noundef 16) #13
  store ptr %57, ptr %6, align 8, !tbaa !224
  %58 = load ptr, ptr %10, align 8, !tbaa !6
  %59 = load ptr, ptr %6, align 8, !tbaa !224
  %60 = getelementptr inbounds nuw %struct.raster_combo_entry_t, ptr %59, i32 0, i32 0
  store ptr %58, ptr %60, align 8, !tbaa !226
  %61 = load i32, ptr %14, align 4, !tbaa !80
  %62 = load ptr, ptr %6, align 8, !tbaa !224
  %63 = getelementptr inbounds nuw %struct.raster_combo_entry_t, ptr %62, i32 0, i32 1
  store i32 %61, ptr %63, align 8, !tbaa !228
  %64 = load ptr, ptr %3, align 8, !tbaa !11
  %65 = load ptr, ptr %15, align 8, !tbaa !141
  %66 = load ptr, ptr %6, align 8, !tbaa !224
  call void @dt_bauhaus_combobox_add_full(ptr noundef %64, ptr noundef %65, i32 noundef 1, ptr noundef %66, ptr noundef @free, i32 noundef 1)
  %67 = load ptr, ptr %10, align 8, !tbaa !6
  %68 = load ptr, ptr %5, align 8, !tbaa !6
  %69 = getelementptr inbounds nuw %struct.dt_iop_module_t, ptr %68, i32 0, i32 89
  %70 = getelementptr inbounds nuw %struct.anon, ptr %69, i32 0, i32 1
  %71 = getelementptr inbounds nuw %struct.anon.1, ptr %70, i32 0, i32 0
  %72 = load ptr, ptr %71, align 16, !tbaa !233
  %73 = icmp eq ptr %67, %72
  br i1 %73, label %74, label %85

74:                                               ; preds = %52
  %75 = load ptr, ptr %5, align 8, !tbaa !6
  %76 = getelementptr inbounds nuw %struct.dt_iop_module_t, ptr %75, i32 0, i32 89
  %77 = getelementptr inbounds nuw %struct.anon, ptr %76, i32 0, i32 1
  %78 = getelementptr inbounds nuw %struct.anon.1, ptr %77, i32 0, i32 1
  %79 = load i32, ptr %78, align 8, !tbaa !234
  %80 = load i32, ptr %14, align 4, !tbaa !80
  %81 = icmp eq i32 %79, %80
  br i1 %81, label %82, label %85

82:                                               ; preds = %74
  %83 = load ptr, ptr %3, align 8, !tbaa !11
  %84 = load i32, ptr %7, align 4, !tbaa !80
  call void @dt_bauhaus_combobox_set(ptr noundef %83, i32 noundef %84)
  br label %85

85:                                               ; preds = %82, %74, %52
  %86 = load i32, ptr %7, align 4, !tbaa !80
  %87 = add nsw i32 %86, 1
  store i32 %87, ptr %7, align 4, !tbaa !80
  call void @llvm.lifetime.end.p0(i64 8, ptr %15) #11
  call void @llvm.lifetime.end.p0(i64 4, ptr %14) #11
  br label %49

88:                                               ; preds = %49
  call void @llvm.lifetime.end.p0(i64 8, ptr %13) #11
  call void @llvm.lifetime.end.p0(i64 8, ptr %12) #11
  call void @llvm.lifetime.end.p0(i64 40, ptr %11) #11
  store i32 0, ptr %9, align 4
  br label %89

89:                                               ; preds = %88, %42
  call void @llvm.lifetime.end.p0(i64 8, ptr %10) #11
  %90 = load i32, ptr %9, align 4
  switch i32 %90, label %102 [
    i32 0, label %91
  ]

91:                                               ; preds = %89
  br label %92

92:                                               ; preds = %91
  %93 = load ptr, ptr %8, align 8, !tbaa !229
  %94 = icmp ne ptr %93, null
  br i1 %94, label %95, label %99

95:                                               ; preds = %92
  %96 = load ptr, ptr %8, align 8, !tbaa !229
  %97 = getelementptr inbounds nuw %struct._GList, ptr %96, i32 0, i32 1
  %98 = load ptr, ptr %97, align 8, !tbaa !235
  br label %100

99:                                               ; preds = %92
  br label %100

100:                                              ; preds = %99, %95
  %101 = phi ptr [ %98, %95 ], [ null, %99 ]
  store ptr %101, ptr %8, align 8, !tbaa !229
  br label %31

102:                                              ; preds = %89, %34
  call void @llvm.lifetime.end.p0(i64 8, ptr %8) #11
  br label %103

103:                                              ; preds = %102
  call void @llvm.lifetime.end.p0(i64 4, ptr %7) #11
  call void @llvm.lifetime.end.p0(i64 8, ptr %6) #11
  call void @llvm.lifetime.end.p0(i64 8, ptr %5) #11
  ret void
}