; Function Attrs: nounwind uwtable
define internal void @_raster_combo_populate(ptr noundef %0, ptr noundef readonly captures(none) %1) #0 {
  %3 = alloca %struct._GHashTableIter, align 8
  %4 = alloca ptr, align 8
  %5 = alloca ptr, align 8
  %6 = load ptr, ptr %1, align 8, !tbaa !190
  tail call void @dt_iop_request_focus(ptr noundef %6) #18
  tail call void @dt_bauhaus_combobox_clear(ptr noundef %0) #18
  %7 = tail call noalias dereferenceable_or_null(16) ptr @malloc(i64 noundef 16) #20
  store ptr null, ptr %7, align 8, !tbaa !195
  %8 = getelementptr inbounds nuw i8, ptr %7, i64 8
  store i32 0, ptr %8, align 8, !tbaa !197
  %9 = tail call ptr @dcgettext(ptr noundef null, ptr noundef nonnull @.str.137, i32 noundef 5) #18
  tail call void @dt_bauhaus_combobox_add_full(ptr noundef %0, ptr noundef %9, i32 noundef 1, ptr noundef nonnull %7, ptr noundef nonnull @free, i32 noundef 1) #18
  %10 = load ptr, ptr getelementptr inbounds nuw (i8, ptr @darktable, i64 64), align 8, !tbaa !119
  %11 = getelementptr inbounds nuw i8, ptr %10, i64 2056
  %.02837 = load ptr, ptr %11, align 8, !tbaa !198
  %.not38 = icmp eq ptr %.02837, null
  br i1 %.not38, label %.thread, label %.lr.ph42

.lr.ph42:                                         ; preds = %2
  %12 = getelementptr inbounds nuw i8, ptr %6, i64 800
  %13 = getelementptr inbounds nuw i8, ptr %6, i64 808
  br label %14

14:                                               ; preds = %.lr.ph42, %._crit_edge
  %.02840 = phi ptr [ %.02837, %.lr.ph42 ], [ %.028, %._crit_edge ]
  %.039 = phi i32 [ 1, %.lr.ph42 ], [ %.2.lcssa, %._crit_edge ]
  %15 = load ptr, ptr %.02840, align 8, !tbaa !199
  %.not33 = icmp eq ptr %15, %6
  br i1 %.not33, label %.thread, label %16

16:                                               ; preds = %14
  call void @llvm.lifetime.start.p0(i64 40, ptr nonnull %3) #18
  call void @llvm.lifetime.start.p0(i64 8, ptr nonnull %4) #18
  call void @llvm.lifetime.start.p0(i64 8, ptr nonnull %5) #18
  %17 = getelementptr inbounds nuw i8, ptr %15, i64 792
  %18 = load ptr, ptr %17, align 8, !tbaa !201
  call void @g_hash_table_iter_init(ptr noundef nonnull %3, ptr noundef %18) #18
  %19 = call i32 @g_hash_table_iter_next(ptr noundef nonnull %3, ptr noundef nonnull %4, ptr noundef nonnull %5) #18
  %.not3235 = icmp eq i32 %19, 0
  br i1 %.not3235, label %._crit_edge, label %.lr.ph

.lr.ph:                                           ; preds = %16, %32
  %.236 = phi i32 [ %33, %32 ], [ %.039, %16 ]
  %20 = load ptr, ptr %4, align 8, !tbaa !154
  %21 = ptrtoint ptr %20 to i64
  %22 = trunc i64 %21 to i32
  %23 = load ptr, ptr %5, align 8, !tbaa !154
  %24 = call noalias dereferenceable_or_null(16) ptr @malloc(i64 noundef 16) #20
  store ptr %15, ptr %24, align 8, !tbaa !195
  %25 = getelementptr inbounds nuw i8, ptr %24, i64 8
  store i32 %22, ptr %25, align 8, !tbaa !197
  call void @dt_bauhaus_combobox_add_full(ptr noundef %0, ptr noundef %23, i32 noundef 1, ptr noundef nonnull %24, ptr noundef nonnull @free, i32 noundef 1) #18
  %26 = load ptr, ptr %12, align 16, !tbaa !202
  %27 = icmp eq ptr %15, %26
  br i1 %27, label %28, label %32

28:                                               ; preds = %.lr.ph
  %29 = load i32, ptr %13, align 8, !tbaa !203
  %30 = icmp eq i32 %29, %22
  br i1 %30, label %31, label %32

31:                                               ; preds = %28
  call void @dt_bauhaus_combobox_set(ptr noundef %0, i32 noundef %.236) #18
  br label %32

32:                                               ; preds = %31, %28, %.lr.ph
  %33 = add nsw i32 %.236, 1
  %34 = call i32 @g_hash_table_iter_next(ptr noundef nonnull %3, ptr noundef nonnull %4, ptr noundef nonnull %5) #18
  %.not32 = icmp eq i32 %34, 0
  br i1 %.not32, label %._crit_edge, label %.lr.ph

._crit_edge:                                      ; preds = %32, %16
  %.2.lcssa = phi i32 [ %.039, %16 ], [ %33, %32 ]
  call void @llvm.lifetime.end.p0(i64 8, ptr nonnull %5) #18
  call void @llvm.lifetime.end.p0(i64 8, ptr nonnull %4) #18
  call void @llvm.lifetime.end.p0(i64 40, ptr nonnull %3) #18
  %35 = getelementptr inbounds nuw i8, ptr %.02840, i64 8
  %.028 = load ptr, ptr %35, align 8, !tbaa !198
  %.not = icmp eq ptr %.028, null
  br i1 %.not, label %.thread, label %14

.thread:                                          ; preds = %._crit_edge, %14, %2
  ret void
}